target datalayout = "e-m:e-p270:32:32-p271:32:32-p272:64:64-i64:64-i128:128-f80:128-n8:16:32:64-S128"
target triple = "x86_64-pc-linux-gnu"

%struct.Parser = type { ptr, ptr, i32, i32, i32, ptr, ptr, ptr, i32, i32, ptr, i32, ptr, i32, i32, i32, i32, i32, %struct.growable_comment_array, ptr, i32, i32, i32 }
%struct.growable_comment_array = type { ptr, i64, i64 }

@PyExc_SyntaxError = external global ptr, align 8
@.str.2 = private unnamed_addr constant [14 x i8] c"expected (%s)\00", align 1

; Function Attrs: nounwind uwtable
define hidden ptr @_PyPegen_expect_forced_result(ptr noundef %0, ptr noundef %1, ptr noundef %2) #0 {
  %4 = alloca ptr, align 8
  %5 = alloca ptr, align 8
  %6 = alloca ptr, align 8
  %7 = alloca ptr, align 8
  store ptr %0, ptr %5, align 8, !tbaa !4
  store ptr %1, ptr %6, align 8, !tbaa !4
  store ptr %2, ptr %7, align 8, !tbaa !21
  %8 = load ptr, ptr %5, align 8, !tbaa !4
  %9 = getelementptr inbounds nuw %struct.Parser, ptr %8, i32 0, i32 15
  %10 = load i32, ptr %9, align 8, !tbaa !86
  %11 = icmp eq i32 %10, 1
  br i1 %11, label %12, label %13

12:                                               ; preds = %3
  store ptr null, ptr %4, align 8
  br label %23

13:                                               ; preds = %3
  %14 = load ptr, ptr %6, align 8, !tbaa !4
  %15 = icmp eq ptr %14, null
  br i1 %15, label %16, label %21

16:                                               ; preds = %13
  %17 = load ptr, ptr %5, align 8, !tbaa !4
  %18 = load ptr, ptr @PyExc_SyntaxError, align 8, !tbaa !19
  %19 = load ptr, ptr %7, align 8, !tbaa !21
  %20 = call ptr (ptr, ptr, i32, ptr, ...) @_PyPegen_raise_error(ptr noundef %17, ptr noundef %18, i32 noundef 0, ptr noundef @.str.2, ptr noundef %19)
  store ptr null, ptr %4, align 8
  br label %23

21:                                               ; preds = %13
  %22 = load ptr, ptr %6, align 8, !tbaa !4
  store ptr %22, ptr %4, align 8
  br label %23

23:                                               ; preds = %21, %16, %12
  %24 = load ptr, ptr %4, align 8
  ret ptr %24
}