; Function Attrs: nounwind uwtable
define hidden noundef ptr @_PyPegen_expect_forced_result(ptr noundef %0, ptr noundef readnone %1, ptr noundef %2) local_unnamed_addr #1 {
  %4 = getelementptr inbounds nuw i8, ptr %0, i64 96
  %5 = load i32, ptr %4, align 8, !tbaa !87
  %6 = icmp eq i32 %5, 1
  br i1 %6, label %12, label %7

7:                                                ; preds = %3
  %8 = icmp eq ptr %1, null
  br i1 %8, label %9, label %12

9:                                                ; preds = %7
  %10 = load ptr, ptr @PyExc_SyntaxError, align 8, !tbaa !19
  %11 = tail call ptr (ptr, ptr, i32, ptr, ...) @_PyPegen_raise_error(ptr noundef nonnull %0, ptr noundef %10, i32 noundef 0, ptr noundef nonnull @.str.2, ptr noundef %2) #13
  br label %12

12:                                               ; preds = %7, %3, %9
  %.0 = phi ptr [ null, %9 ], [ null, %3 ], [ %1, %7 ]
  ret ptr %.0
}